target datalayout = "e-m:e-p270:32:32-p271:32:32-p272:64:64-i64:64-i128:128-f80:128-n8:16:32:64-S128"
target triple = "x86_64-pc-linux-gnu"

%struct.CONF_VALUE = type { ptr, ptr, ptr }

; Function Attrs: inlinehint nounwind uwtable
define internal ptr @ossl_check_const_CONF_VALUE_sk_type(ptr noundef %0) #4 {
  %2 = alloca ptr, align 8
  store ptr %0, ptr %2, align 8, !tbaa !13
  %3 = load ptr, ptr %2, align 8, !tbaa !13
  ret ptr %3
}

; Function Attrs: nounwind uwtable
define i32 @X509V3_NAME_from_section(ptr noundef %0, ptr noundef %1, i64 noundef %2) #0 {
  %4 = alloca i32, align 4
  %5 = alloca ptr, align 8
  %6 = alloca ptr, align 8
  %7 = alloca i64, align 8
  %8 = alloca ptr, align 8
  %9 = alloca i32, align 4
  %10 = alloca i32, align 4
  %11 = alloca i32, align 4
  %12 = alloca i32, align 4
  %13 = alloca ptr, align 8
  %14 = alloca ptr, align 8
  %15 = alloca i32, align 4
  store ptr %0, ptr %5, align 8, !tbaa !44
  store ptr %1, ptr %6, align 8, !tbaa !13
  store i64 %2, ptr %7, align 8, !tbaa !10
  call void @llvm.lifetime.start.p0(i64 8, ptr %8) #8
  call void @llvm.lifetime.start.p0(i64 4, ptr %9) #8
  call void @llvm.lifetime.start.p0(i64 4, ptr %10) #8
  call void @llvm.lifetime.start.p0(i64 4, ptr %11) #8
  call void @llvm.lifetime.start.p0(i64 4, ptr %12) #8
  call void @llvm.lifetime.start.p0(i64 8, ptr %13) #8
  call void @llvm.lifetime.start.p0(i64 8, ptr %14) #8
  %16 = load ptr, ptr %5, align 8, !tbaa !44
  %17 = icmp ne ptr %16, null
  br i1 %17, label %19, label %18

18:                                               ; preds = %3
  store i32 0, ptr %4, align 4
  store i32 1, ptr %15, align 4
  br label %101

19:                                               ; preds = %3
  store i32 0, ptr %9, align 4, !tbaa !15
  br label %20

20:                                               ; preds = %97, %19
  %21 = load i32, ptr %9, align 4, !tbaa !15
  %22 = load ptr, ptr %6, align 8, !tbaa !13
  %23 = call ptr @ossl_check_const_CONF_VALUE_sk_type(ptr noundef %22)
  %24 = call i32 @OPENSSL_sk_num(ptr noundef %23)
  %25 = icmp slt i32 %21, %24
  br i1 %25, label %26, label %100

26:                                               ; preds = %20
  %27 = load ptr, ptr %6, align 8, !tbaa !13
  %28 = call ptr @ossl_check_const_CONF_VALUE_sk_type(ptr noundef %27)
  %29 = load i32, ptr %9, align 4, !tbaa !15
  %30 = call ptr @OPENSSL_sk_value(ptr noundef %28, i32 noundef %29)
  store ptr %30, ptr %8, align 8, !tbaa !12
  %31 = load ptr, ptr %8, align 8, !tbaa !12
  %32 = getelementptr inbounds nuw %struct.CONF_VALUE, ptr %31, i32 0, i32 1
  %33 = load ptr, ptr %32, align 8, !tbaa !19
  store ptr %33, ptr %14, align 8, !tbaa !3
  %34 = load ptr, ptr %14, align 8, !tbaa !3
  store ptr %34, ptr %13, align 8, !tbaa !3
  br label %35

35:                                               ; preds = %69, %26
  %36 = load ptr, ptr %13, align 8, !tbaa !3
  %37 = load i8, ptr %36, align 1, !tbaa !27
  %38 = icmp ne i8 %37, 0
  br i1 %38, label %39, label %72

39:                                               ; preds = %35
  %40 = load ptr, ptr %13, align 8, !tbaa !3
  %41 = load i8, ptr %40, align 1, !tbaa !27
  %42 = sext i8 %41 to i32
  %43 = icmp eq i32 %42, 58
  br i1 %43, label %54, label %44

44:                                               ; preds = %39
  %45 = load ptr, ptr %13, align 8, !tbaa !3
  %46 = load i8, ptr %45, align 1, !tbaa !27
  %47 = sext i8 %46 to i32
  %48 = icmp eq i32 %47, 44
  br i1 %48, label %54, label %49

49:                                               ; preds = %44
  %50 = load ptr, ptr %13, align 8, !tbaa !3
  %51 = load i8, ptr %50, align 1, !tbaa !27
  %52 = sext i8 %51 to i32
  %53 = icmp eq i32 %52, 46
  br label %54

54:                                               ; preds = %49, %44, %39
  %55 = phi i1 [ true, %44 ], [ true, %39 ], [ %53, %49 ]
  %56 = zext i1 %55 to i32
  store i32 %56, ptr %11, align 4, !tbaa !15
  %57 = load i32, ptr %11, align 4, !tbaa !15
  %58 = icmp ne i32 %57, 0
  br i1 %58, label %59, label %68

59:                                               ; preds = %54
  %60 = load ptr, ptr %13, align 8, !tbaa !3
  %61 = getelementptr inbounds nuw i8, ptr %60, i32 1
  store ptr %61, ptr %13, align 8, !tbaa !3
  %62 = load ptr, ptr %13, align 8, !tbaa !3
  %63 = load i8, ptr %62, align 1, !tbaa !27
  %64 = icmp ne i8 %63, 0
  br i1 %64, label %65, label %67

65:                                               ; preds = %59
  %66 = load ptr, ptr %13, align 8, !tbaa !3
  store ptr %66, ptr %14, align 8, !tbaa !3
  br label %67

67:                                               ; preds = %65, %59
  br label %72

68:                                               ; preds = %54
  br label %69

69:                                               ; preds = %68
  %70 = load ptr, ptr %13, align 8, !tbaa !3
  %71 = getelementptr inbounds nuw i8, ptr %70, i32 1
  store ptr %71, ptr %13, align 8, !tbaa !3
  br label %35, !llvm.loop !86

72:                                               ; preds = %67, %35
  %73 = load ptr, ptr %14, align 8, !tbaa !3
  %74 = load i8, ptr %73, align 1, !tbaa !27
  %75 = sext i8 %74 to i32
  %76 = icmp eq i32 %75, 43
  %77 = zext i1 %76 to i32
  store i32 %77, ptr %12, align 4, !tbaa !15
  %78 = load i32, ptr %12, align 4, !tbaa !15
  %79 = icmp ne i32 %78, 0
  br i1 %79, label %80, label %83

80:                                               ; preds = %72
  store i32 -1, ptr %10, align 4, !tbaa !15
  %81 = load ptr, ptr %14, align 8, !tbaa !3
  %82 = getelementptr inbounds nuw i8, ptr %81, i32 1
  store ptr %82, ptr %14, align 8, !tbaa !3
  br label %84

83:                                               ; preds = %72
  store i32 0, ptr %10, align 4, !tbaa !15
  br label %84

84:                                               ; preds = %83, %80
  %85 = load ptr, ptr %5, align 8, !tbaa !44
  %86 = load ptr, ptr %14, align 8, !tbaa !3
  %87 = load i64, ptr %7, align 8, !tbaa !10
  %88 = trunc i64 %87 to i32
  %89 = load ptr, ptr %8, align 8, !tbaa !12
  %90 = getelementptr inbounds nuw %struct.CONF_VALUE, ptr %89, i32 0, i32 2
  %91 = load ptr, ptr %90, align 8, !tbaa !20
  %92 = load i32, ptr %10, align 4, !tbaa !15
  %93 = call i32 @X509_NAME_add_entry_by_txt(ptr noundef %85, ptr noundef %86, i32 noundef %88, ptr noundef %91, i32 noundef -1, i32 noundef -1, i32 noundef %92)
  %94 = icmp ne i32 %93, 0
  br i1 %94, label %96, label %95

95:                                               ; preds = %84
  store i32 0, ptr %4, align 4
  store i32 1, ptr %15, align 4
  br label %101

96:                                               ; preds = %84
  br label %97

97:                                               ; preds = %96
  %98 = load i32, ptr %9, align 4, !tbaa !15
  %99 = add nsw i32 %98, 1
  store i32 %99, ptr %9, align 4, !tbaa !15
  br label %20, !llvm.loop !87

100:                                              ; preds = %20
  store i32 1, ptr %4, align 4
  store i32 1, ptr %15, align 4
  br label %101

101:                                              ; preds = %100, %95, %18
  call void @llvm.lifetime.end.p0(i64 8, ptr %14) #8
  call void @llvm.lifetime.end.p0(i64 8, ptr %13) #8
  call void @llvm.lifetime.end.p0(i64 4, ptr %12) #8
  call void @llvm.lifetime.end.p0(i64 4, ptr %11) #8
  call void @llvm.lifetime.end.p0(i64 4, ptr %10) #8
  call void @llvm.lifetime.end.p0(i64 4, ptr %9) #8
  call void @llvm.lifetime.end.p0(i64 8, ptr %8) #8
  %102 = load i32, ptr %4, align 4
  ret i32 %102
}