; Function Attrs: nounwind uwtable
define range(i32 0, 2) i32 @X509V3_NAME_from_section(ptr noundef %0, ptr noundef %1, i64 noundef %2) local_unnamed_addr #0 {
  %.not = icmp eq ptr %0, null
  br i1 %.not, label %.loopexit35, label %.preheader

.preheader:                                       ; preds = %3
  %4 = tail call i32 @OPENSSL_sk_num(ptr noundef %1) #12
  %5 = icmp sgt i32 %4, 0
  br i1 %5, label %.lr.ph, label %.loopexit35

.lr.ph:                                           ; preds = %.preheader
  %6 = trunc i64 %2 to i32
  br label %11

7:                                                ; preds = %.loopexit
  %8 = add nuw nsw i32 %.02737, 1
  %9 = tail call i32 @OPENSSL_sk_num(ptr noundef %1) #12
  %10 = icmp slt i32 %8, %9
  br i1 %10, label %11, label %.loopexit35, !llvm.loop !56

11:                                               ; preds = %.lr.ph, %7
  %.02737 = phi i32 [ 0, %.lr.ph ], [ %8, %7 ]
  %12 = tail call ptr @OPENSSL_sk_value(ptr noundef %1, i32 noundef %.02737) #12
  %13 = getelementptr inbounds nuw i8, ptr %12, i64 8
  %14 = load ptr, ptr %13, align 8, !tbaa !11
  br label %15

15:                                               ; preds = %.critedge, %11
  %.025 = phi ptr [ %14, %11 ], [ %17, %.critedge ]
  %16 = load i8, ptr %.025, align 1, !tbaa !13
  switch i8 %16, label %.critedge [
    i8 0, label %.loopexit
    i8 58, label %switch.edge
    i8 44, label %switch.edge
    i8 46, label %switch.edge
  ]

.critedge:                                        ; preds = %15
  %17 = getelementptr inbounds nuw i8, ptr %.025, i64 1
  br label %15, !llvm.loop !57

switch.edge:                                      ; preds = %15, %15, %15
  %18 = getelementptr inbounds nuw i8, ptr %.025, i64 1
  %19 = load i8, ptr %18, align 1, !tbaa !13
  %.not33 = icmp eq i8 %19, 0
  %spec.select = select i1 %.not33, ptr %14, ptr %18
  br label %.loopexit

.loopexit:                                        ; preds = %15, %switch.edge
  %.0 = phi ptr [ %spec.select, %switch.edge ], [ %14, %15 ]
  %20 = load i8, ptr %.0, align 1, !tbaa !13
  %21 = icmp eq i8 %20, 43
  %.028 = sext i1 %21 to i32
  %.1.idx = zext i1 %21 to i64
  %.1 = getelementptr inbounds nuw i8, ptr %.0, i64 %.1.idx
  %22 = getelementptr inbounds nuw i8, ptr %12, i64 16
  %23 = load ptr, ptr %22, align 8, !tbaa !12
  %24 = tail call i32 @X509_NAME_add_entry_by_txt(ptr noundef nonnull %0, ptr noundef nonnull %.1, i32 noundef %6, ptr noundef %23, i32 noundef -1, i32 noundef -1, i32 noundef %.028) #12
  %.not34 = icmp eq i32 %24, 0
  br i1 %.not34, label %.loopexit35, label %7

.loopexit35:                                      ; preds = %.loopexit, %7, %.preheader, %3
  %.026 = phi i32 [ 0, %3 ], [ 1, %.preheader ], [ 0, %.loopexit ], [ 1, %7 ]
  ret i32 %.026
}